target datalayout = "e-m:e-p270:32:32-p271:32:32-p272:64:64-i64:64-i128:128-f80:128-n8:16:32:64-S128"
target triple = "x86_64-pc-linux-gnu"

%"class.OpenSubdiv::v3_6_0::Vtr::internal::Refinement" = type { ptr, ptr, ptr, %"class.OpenSubdiv::v3_6_0::Sdc::Options", i32, i32, i8, i8, i32, i32, i32, i32, i32, i32, i32, i32, i32, i32, i32, i32, %"class.OpenSubdiv::v3_6_0::Vtr::Array", %"class.OpenSubdiv::v3_6_0::Vtr::Array", %"class.std::vector", %"class.std::vector", %"class.std::vector", %"class.std::vector", %"class.std::vector", %"class.std::vector", %"class.std::vector", %"class.std::vector", %"class.std::vector", %"class.std::vector.0", %"class.std::vector.0", %"class.std::vector.0", %"class.std::vector.5", %"class.std::vector.5", %"class.std::vector.5", %"class.std::vector.10" }
%"class.OpenSubdiv::v3_6_0::Sdc::Options" = type { i8, i8, i8, i8 }
%"class.OpenSubdiv::v3_6_0::Vtr::Array" = type { %"class.OpenSubdiv::v3_6_0::Vtr::ConstArray.base", [4 x i8] }
%"class.OpenSubdiv::v3_6_0::Vtr::ConstArray.base" = type <{ ptr, i32 }>
%"class.std::vector" = type { %"struct.std::_Vector_base" }
%"struct.std::_Vector_base" = type { %"struct.std::_Vector_base<int, std::allocator<int>>::_Vector_impl" }
%"struct.std::_Vector_base<int, std::allocator<int>>::_Vector_impl" = type { %"struct.std::_Vector_base<int, std::allocator<int>>::_Vector_impl_data" }
%"struct.std::_Vector_base<int, std::allocator<int>>::_Vector_impl_data" = type { ptr, ptr, ptr }
%"class.std::vector.0" = type { %"struct.std::_Vector_base.1" }
%"struct.std::_Vector_base.1" = type { %"struct.std::_Vector_base<OpenSubdiv::v3_6_0::Vtr::internal::Refinement::ChildTag, std::allocator<OpenSubdiv::v3_6_0::Vtr::internal::Refinement::ChildTag>>::_Vector_impl" }
%"struct.std::_Vector_base<OpenSubdiv::v3_6_0::Vtr::internal::Refinement::ChildTag, std::allocator<OpenSubdiv::v3_6_0::Vtr::internal::Refinement::ChildTag>>::_Vector_impl" = type { %"struct.std::_Vector_base<OpenSubdiv::v3_6_0::Vtr::internal::Refinement::ChildTag, std::allocator<OpenSubdiv::v3_6_0::Vtr::internal::Refinement::ChildTag>>::_Vector_impl_data" }
%"struct.std::_Vector_base<OpenSubdiv::v3_6_0::Vtr::internal::Refinement::ChildTag, std::allocator<OpenSubdiv::v3_6_0::Vtr::internal::Refinement::ChildTag>>::_Vector_impl_data" = type { ptr, ptr, ptr }
%"class.std::vector.5" = type { %"struct.std::_Vector_base.6" }
%"struct.std::_Vector_base.6" = type { %"struct.std::_Vector_base<OpenSubdiv::v3_6_0::Vtr::internal::Refinement::SparseTag, std::allocator<OpenSubdiv::v3_6_0::Vtr::internal::Refinement::SparseTag>>::_Vector_impl" }
%"struct.std::_Vector_base<OpenSubdiv::v3_6_0::Vtr::internal::Refinement::SparseTag, std::allocator<OpenSubdiv::v3_6_0::Vtr::internal::Refinement::SparseTag>>::_Vector_impl" = type { %"struct.std::_Vector_base<OpenSubdiv::v3_6_0::Vtr::internal::Refinement::SparseTag, std::allocator<OpenSubdiv::v3_6_0::Vtr::internal::Refinement::SparseTag>>::_Vector_impl_data" }
%"struct.std::_Vector_base<OpenSubdiv::v3_6_0::Vtr::internal::Refinement::SparseTag, std::allocator<OpenSubdiv::v3_6_0::Vtr::internal::Refinement::SparseTag>>::_Vector_impl_data" = type { ptr, ptr, ptr }
%"class.std::vector.10" = type { %"struct.std::_Vector_base.11" }
%"struct.std::_Vector_base.11" = type { %"struct.std::_Vector_base<OpenSubdiv::v3_6_0::Vtr::internal::FVarRefinement *, std::allocator<OpenSubdiv::v3_6_0::Vtr::internal::FVarRefinement *>>::_Vector_impl" }
%"struct.std::_Vector_base<OpenSubdiv::v3_6_0::Vtr::internal::FVarRefinement *, std::allocator<OpenSubdiv::v3_6_0::Vtr::internal::FVarRefinement *>>::_Vector_impl" = type { %"struct.std::_Vector_base<OpenSubdiv::v3_6_0::Vtr::internal::FVarRefinement *, std::allocator<OpenSubdiv::v3_6_0::Vtr::internal::FVarRefinement *>>::_Vector_impl_data" }
%"struct.std::_Vector_base<OpenSubdiv::v3_6_0::Vtr::internal::FVarRefinement *, std::allocator<OpenSubdiv::v3_6_0::Vtr::internal::FVarRefinement *>>::_Vector_impl_data" = type { ptr, ptr, ptr }
%"class.OpenSubdiv::v3_6_0::Vtr::internal::Level" = type { i32, i32, i32, i32, i32, i32, %"class.std::vector", %"class.std::vector", %"class.std::vector", %"class.std::vector.15", %"class.std::vector", %"class.std::vector", %"class.std::vector", %"class.std::vector.20", %"class.std::vector.25", %"class.std::vector.30", %"class.std::vector", %"class.std::vector", %"class.std::vector.20", %"class.std::vector", %"class.std::vector", %"class.std::vector.20", %"class.std::vector.25", %"class.std::vector.35", %"class.std::vector.40" }
%"class.std::vector.15" = type { %"struct.std::_Vector_base.16" }
%"struct.std::_Vector_base.16" = type { %"struct.std::_Vector_base<OpenSubdiv::v3_6_0::Vtr::internal::Level::FTag, std::allocator<OpenSubdiv::v3_6_0::Vtr::internal::Level::FTag>>::_Vector_impl" }
%"struct.std::_Vector_base<OpenSubdiv::v3_6_0::Vtr::internal::Level::FTag, std::allocator<OpenSubdiv::v3_6_0::Vtr::internal::Level::FTag>>::_Vector_impl" = type { %"struct.std::_Vector_base<OpenSubdiv::v3_6_0::Vtr::internal::Level::FTag, std::allocator<OpenSubdiv::v3_6_0::Vtr::internal::Level::FTag>>::_Vector_impl_data" }
%"struct.std::_Vector_base<OpenSubdiv::v3_6_0::Vtr::internal::Level::FTag, std::allocator<OpenSubdiv::v3_6_0::Vtr::internal::Level::FTag>>::_Vector_impl_data" = type { ptr, ptr, ptr }
%"class.std::vector.30" = type { %"struct.std::_Vector_base.31" }
%"struct.std::_Vector_base.31" = type { %"struct.std::_Vector_base<OpenSubdiv::v3_6_0::Vtr::internal::Level::ETag, std::allocator<OpenSubdiv::v3_6_0::Vtr::internal::Level::ETag>>::_Vector_impl" }
%"struct.std::_Vector_base<OpenSubdiv::v3_6_0::Vtr::internal::Level::ETag, std::allocator<OpenSubdiv::v3_6_0::Vtr::internal::Level::ETag>>::_Vector_impl" = type { %"struct.std::_Vector_base<OpenSubdiv::v3_6_0::Vtr::internal::Level::ETag, std::allocator<OpenSubdiv::v3_6_0::Vtr::internal::Level::ETag>>::_Vector_impl_data" }
%"struct.std::_Vector_base<OpenSubdiv::v3_6_0::Vtr::internal::Level::ETag, std::allocator<OpenSubdiv::v3_6_0::Vtr::internal::Level::ETag>>::_Vector_impl_data" = type { ptr, ptr, ptr }
%"class.std::vector.20" = type { %"struct.std::_Vector_base.21" }
%"struct.std::_Vector_base.21" = type { %"struct.std::_Vector_base<unsigned short, std::allocator<unsigned short>>::_Vector_impl" }
%"struct.std::_Vector_base<unsigned short, std::allocator<unsigned short>>::_Vector_impl" = type { %"struct.std::_Vector_base<unsigned short, std::allocator<unsigned short>>::_Vector_impl_data" }
%"struct.std::_Vector_base<unsigned short, std::allocator<unsigned short>>::_Vector_impl_data" = type { ptr, ptr, ptr }
%"class.std::vector.25" = type { %"struct.std::_Vector_base.26" }
%"struct.std::_Vector_base.26" = type { %"struct.std::_Vector_base<float, std::allocator<float>>::_Vector_impl" }
%"struct.std::_Vector_base<float, std::allocator<float>>::_Vector_impl" = type { %"struct.std::_Vector_base<float, std::allocator<float>>::_Vector_impl_data" }
%"struct.std::_Vector_base<float, std::allocator<float>>::_Vector_impl_data" = type { ptr, ptr, ptr }
%"class.std::vector.35" = type { %"struct.std::_Vector_base.36" }
%"struct.std::_Vector_base.36" = type { %"struct.std::_Vector_base<OpenSubdiv::v3_6_0::Vtr::internal::Level::VTag, std::allocator<OpenSubdiv::v3_6_0::Vtr::internal::Level::VTag>>::_Vector_impl" }
%"struct.std::_Vector_base<OpenSubdiv::v3_6_0::Vtr::internal::Level::VTag, std::allocator<OpenSubdiv::v3_6_0::Vtr::internal::Level::VTag>>::_Vector_impl" = type { %"struct.std::_Vector_base<OpenSubdiv::v3_6_0::Vtr::internal::Level::VTag, std::allocator<OpenSubdiv::v3_6_0::Vtr::internal::Level::VTag>>::_Vector_impl_data" }
%"struct.std::_Vector_base<OpenSubdiv::v3_6_0::Vtr::internal::Level::VTag, std::allocator<OpenSubdiv::v3_6_0::Vtr::internal::Level::VTag>>::_Vector_impl_data" = type { ptr, ptr, ptr }
%"class.std::vector.40" = type { %"struct.std::_Vector_base.41" }
%"struct.std::_Vector_base.41" = type { %"struct.std::_Vector_base<OpenSubdiv::v3_6_0::Vtr::internal::FVarLevel *, std::allocator<OpenSubdiv::v3_6_0::Vtr::internal::FVarLevel *>>::_Vector_impl" }
%"struct.std::_Vector_base<OpenSubdiv::v3_6_0::Vtr::internal::FVarLevel *, std::allocator<OpenSubdiv::v3_6_0::Vtr::internal::FVarLevel *>>::_Vector_impl" = type { %"struct.std::_Vector_base<OpenSubdiv::v3_6_0::Vtr::internal::FVarLevel *, std::allocator<OpenSubdiv::v3_6_0::Vtr::internal::FVarLevel *>>::_Vector_impl_data" }
%"struct.std::_Vector_base<OpenSubdiv::v3_6_0::Vtr::internal::FVarLevel *, std::allocator<OpenSubdiv::v3_6_0::Vtr::internal::FVarLevel *>>::_Vector_impl_data" = type { ptr, ptr, ptr }
%"struct.OpenSubdiv::v3_6_0::Vtr::internal::Level::ETag" = type { i8 }
%"struct.OpenSubdiv::v3_6_0::Vtr::internal::Level::VTag" = type { i16 }

; Function Attrs: mustprogress nounwind uwtable
define linkonce_odr noundef nonnull align 2 dereferenceable(2) ptr @_ZNSt6vectorIN10OpenSubdiv6v3_6_03Vtr8internal5Level4VTagESaIS5_EEixEm(ptr noundef nonnull align 8 dereferenceable(24) %0, i64 noundef %1) #0 comdat align 2 {
  %3 = alloca ptr, align 8
  %4 = alloca i64, align 8
  store ptr %0, ptr %3, align 8
  store i64 %1, ptr %4, align 8
  %5 = load ptr, ptr %3, align 8
  %6 = getelementptr inbounds nuw %"struct.std::_Vector_base.36", ptr %5, i32 0, i32 0
  %7 = getelementptr inbounds nuw %"struct.std::_Vector_base<OpenSubdiv::v3_6_0::Vtr::internal::Level::VTag, std::allocator<OpenSubdiv::v3_6_0::Vtr::internal::Level::VTag>>::_Vector_impl_data", ptr %6, i32 0, i32 0
  %8 = load ptr, ptr %7, align 8
  %9 = load i64, ptr %4, align 8
  %10 = getelementptr inbounds %"struct.OpenSubdiv::v3_6_0::Vtr::internal::Level::VTag", ptr %8, i64 %9
  ret ptr %10
}

; Function Attrs: mustprogress nounwind uwtable
define linkonce_odr noundef nonnull align 1 dereferenceable(1) ptr @_ZNKSt6vectorIN10OpenSubdiv6v3_6_03Vtr8internal5Level4ETagESaIS5_EEixEm(ptr noundef nonnull align 8 dereferenceable(24) %0, i64 noundef %1) #0 comdat align 2 {
  %3 = alloca ptr, align 8
  %4 = alloca i64, align 8
  store ptr %0, ptr %3, align 8
  store i64 %1, ptr %4, align 8
  %5 = load ptr, ptr %3, align 8
  %6 = getelementptr inbounds nuw %"struct.std::_Vector_base.31", ptr %5, i32 0, i32 0
  %7 = getelementptr inbounds nuw %"struct.std::_Vector_base<OpenSubdiv::v3_6_0::Vtr::internal::Level::ETag, std::allocator<OpenSubdiv::v3_6_0::Vtr::internal::Level::ETag>>::_Vector_impl_data", ptr %6, i32 0, i32 0
  %8 = load ptr, ptr %7, align 8
  %9 = load i64, ptr %4, align 8
  %10 = getelementptr inbounds %"struct.OpenSubdiv::v3_6_0::Vtr::internal::Level::ETag", ptr %8, i64 %9
  ret ptr %10
}

; Function Attrs: mustprogress nounwind uwtable
define linkonce_odr noundef zeroext i1 @_ZN10OpenSubdiv6v3_6_03Vtr12IndexIsValidEi(i32 noundef %0) #0 comdat {
  %2 = alloca i32, align 4
  store i32 %0, ptr %2, align 4
  %3 = load i32, ptr %2, align 4
  %4 = icmp ne i32 %3, -1
  ret i1 %4
}

; Function Attrs: mustprogress nounwind uwtable
define linkonce_odr noundef nonnull align 4 dereferenceable(4) ptr @_ZNSt6vectorIiSaIiEEixEm(ptr noundef nonnull align 8 dereferenceable(24) %0, i64 noundef %1) #0 comdat align 2 {
  %3 = alloca ptr, align 8
  %4 = alloca i64, align 8
  store ptr %0, ptr %3, align 8
  store i64 %1, ptr %4, align 8
  %5 = load ptr, ptr %3, align 8
  %6 = getelementptr inbounds nuw %"struct.std::_Vector_base", ptr %5, i32 0, i32 0
  %7 = getelementptr inbounds nuw %"struct.std::_Vector_base<int, std::allocator<int>>::_Vector_impl_data", ptr %6, i32 0, i32 0
  %8 = load ptr, ptr %7, align 8
  %9 = load i64, ptr %4, align 8
  %10 = getelementptr inbounds i32, ptr %8, i64 %9
  ret ptr %10
}

; Function Attrs: mustprogress nounwind uwtable
define linkonce_odr noundef i32 @_ZNK10OpenSubdiv6v3_6_03Vtr8internal5Level11getNumEdgesEv(ptr noundef nonnull align 8 dereferenceable(480) %0) #0 comdat align 2 {
  %2 = alloca ptr, align 8
  store ptr %0, ptr %2, align 8
  %3 = load ptr, ptr %2, align 8
  %4 = getelementptr inbounds nuw %"class.OpenSubdiv::v3_6_0::Vtr::internal::Level", ptr %3, i32 0, i32 1
  %5 = load i32, ptr %4, align 4
  ret i32 %5
}

; Function Attrs: mustprogress nounwind uwtable
define linkonce_odr void @_ZN10OpenSubdiv6v3_6_03Vtr8internal5Level4VTag5clearEv(ptr noundef nonnull align 2 dereferenceable(2) %0) #0 comdat align 2 {
  %2 = alloca ptr, align 8
  store ptr %0, ptr %2, align 8
  %3 = load ptr, ptr %2, align 8
  call void @llvm.memset.p0.i64(ptr align 1 %3, i8 0, i64 2, i1 false)
  ret void
}

; Function Attrs: mustprogress nounwind uwtable
define linkonce_odr void @_ZN10OpenSubdiv6v3_6_03Vtr8internal5Level4VTagC2Ev(ptr noundef nonnull align 2 dereferenceable(2) %0) unnamed_addr #0 comdat align 2 {
  %2 = alloca ptr, align 8
  store ptr %0, ptr %2, align 8
  ret void
}

; Function Attrs: mustprogress uwtable
define void @_ZN10OpenSubdiv6v3_6_03Vtr8internal10Refinement33populateVertexTagsFromParentEdgesEv(ptr noundef nonnull align 8 dereferenceable(504) %0) #1 align 2 {
  %2 = alloca ptr, align 8
  %3 = alloca %"struct.OpenSubdiv::v3_6_0::Vtr::internal::Level::VTag", align 2
  %4 = alloca i32, align 4
  %5 = alloca i32, align 4
  %6 = alloca ptr, align 8
  store ptr %0, ptr %2, align 8
  %7 = load ptr, ptr %2, align 8
  call void @_ZN10OpenSubdiv6v3_6_03Vtr8internal5Level4VTagC2Ev(ptr noundef nonnull align 2 dereferenceable(2) %3)
  call void @_ZN10OpenSubdiv6v3_6_03Vtr8internal5Level4VTag5clearEv(ptr noundef nonnull align 2 dereferenceable(2) %3)
  store i32 0, ptr %4, align 4
  br label %8

8:                                                ; preds = %122, %1
  %9 = load i32, ptr %4, align 4
  %10 = getelementptr inbounds nuw %"class.OpenSubdiv::v3_6_0::Vtr::internal::Refinement", ptr %7, i32 0, i32 1
  %11 = load ptr, ptr %10, align 8
  %12 = call noundef i32 @_ZNK10OpenSubdiv6v3_6_03Vtr8internal5Level11getNumEdgesEv(ptr noundef nonnull align 8 dereferenceable(480) %11)
  %13 = icmp slt i32 %9, %12
  br i1 %13, label %14, label %125

14:                                               ; preds = %8
  %15 = getelementptr inbounds nuw %"class.OpenSubdiv::v3_6_0::Vtr::internal::Refinement", ptr %7, i32 0, i32 26
  %16 = load i32, ptr %4, align 4
  %17 = sext i32 %16 to i64
  %18 = call noundef nonnull align 4 dereferenceable(4) ptr @_ZNSt6vectorIiSaIiEEixEm(ptr noundef nonnull align 8 dereferenceable(24) %15, i64 noundef %17) #12
  %19 = load i32, ptr %18, align 4
  store i32 %19, ptr %5, align 4
  %20 = load i32, ptr %5, align 4
  %21 = call noundef zeroext i1 @_ZN10OpenSubdiv6v3_6_03Vtr12IndexIsValidEi(i32 noundef %20)
  br i1 %21, label %23, label %22

22:                                               ; preds = %14
  br label %122

23:                                               ; preds = %14
  %24 = getelementptr inbounds nuw %"class.OpenSubdiv::v3_6_0::Vtr::internal::Refinement", ptr %7, i32 0, i32 1
  %25 = load ptr, ptr %24, align 8
  %26 = getelementptr inbounds nuw %"class.OpenSubdiv::v3_6_0::Vtr::internal::Level", ptr %25, i32 0, i32 15
  %27 = load i32, ptr %4, align 4
  %28 = sext i32 %27 to i64
  %29 = call noundef nonnull align 1 dereferenceable(1) ptr @_ZNKSt6vectorIN10OpenSubdiv6v3_6_03Vtr8internal5Level4ETagESaIS5_EEixEm(ptr noundef nonnull align 8 dereferenceable(24) %26, i64 noundef %28) #12
  store ptr %29, ptr %6, align 8
  %30 = load ptr, ptr %6, align 8
  %31 = load i8, ptr %30, align 1
  %32 = and i8 %31, 1
  %33 = zext i8 %32 to i16
  %34 = load i16, ptr %3, align 2
  %35 = and i16 %33, 1
  %36 = and i16 %34, -2
  %37 = or i16 %36, %35
  store i16 %37, ptr %3, align 2
  %38 = load ptr, ptr %6, align 8
  %39 = load i8, ptr %38, align 1
  %40 = lshr i8 %39, 1
  %41 = and i8 %40, 1
  %42 = zext i8 %41 to i16
  %43 = load i16, ptr %3, align 2
  %44 = and i16 %42, 1
  %45 = shl i16 %44, 2
  %46 = and i16 %43, -5
  %47 = or i16 %46, %45
  store i16 %47, ptr %3, align 2
  %48 = load ptr, ptr %6, align 8
  %49 = load i8, ptr %48, align 1
  %50 = lshr i8 %49, 3
  %51 = and i8 %50, 1
  %52 = zext i8 %51 to i16
  %53 = load i16, ptr %3, align 2
  %54 = and i16 %52, 1
  %55 = shl i16 %54, 6
  %56 = and i16 %53, -65
  %57 = or i16 %56, %55
  store i16 %57, ptr %3, align 2
  %58 = load ptr, ptr %6, align 8
  %59 = load i8, ptr %58, align 1
  %60 = lshr i8 %59, 2
  %61 = and i8 %60, 1
  %62 = zext i8 %61 to i16
  %63 = load i16, ptr %3, align 2
  %64 = and i16 %62, 1
  %65 = shl i16 %64, 13
  %66 = and i16 %63, -8193
  %67 = or i16 %66, %65
  store i16 %67, ptr %3, align 2
  %68 = load ptr, ptr %6, align 8
  %69 = load i8, ptr %68, align 1
  %70 = lshr i8 %69, 2
  %71 = and i8 %70, 1
  %72 = zext i8 %71 to i16
  %73 = load i16, ptr %3, align 2
  %74 = and i16 %72, 1
  %75 = shl i16 %74, 14
  %76 = and i16 %73, -16385
  %77 = or i16 %76, %75
  store i16 %77, ptr %3, align 2
  %78 = load ptr, ptr %6, align 8
  %79 = load i8, ptr %78, align 1
  %80 = lshr i8 %79, 2
  %81 = and i8 %80, 1
  %82 = icmp ne i8 %81, 0
  br i1 %82, label %83, label %88

83:                                               ; preds = %23
  %84 = load ptr, ptr %6, align 8
  %85 = load i8, ptr %84, align 1
  %86 = and i8 %85, 1
  %87 = icmp ne i8 %86, 0
  br label %88

88:                                               ; preds = %83, %23
  %89 = phi i1 [ false, %23 ], [ %87, %83 ]
  %90 = zext i1 %89 to i16
  %91 = load i16, ptr %3, align 2
  %92 = and i16 %90, 1
  %93 = shl i16 %92, 15
  %94 = and i16 %91, 32767
  %95 = or i16 %94, %93
  store i16 %95, ptr %3, align 2
  %96 = load ptr, ptr %6, align 8
  %97 = load i8, ptr %96, align 1
  %98 = lshr i8 %97, 3
  %99 = and i8 %98, 1
  %100 = icmp ne i8 %99, 0
  br i1 %100, label %107, label %101

101:                                              ; preds = %88
  %102 = load ptr, ptr %6, align 8
  %103 = load i8, ptr %102, align 1
  %104 = lshr i8 %103, 2
  %105 = and i8 %104, 1
  %106 = icmp ne i8 %105, 0
  br label %107

107:                                              ; preds = %101, %88
  %108 = phi i1 [ true, %88 ], [ %106, %101 ]
  %109 = select i1 %108, i32 4, i32 1
  %110 = trunc i32 %109 to i16
  %111 = load i16, ptr %3, align 2
  %112 = and i16 %110, 15
  %113 = shl i16 %112, 7
  %114 = and i16 %111, -1921
  %115 = or i16 %114, %113
  store i16 %115, ptr %3, align 2
  %116 = getelementptr inbounds nuw %"class.OpenSubdiv::v3_6_0::Vtr::internal::Refinement", ptr %7, i32 0, i32 2
  %117 = load ptr, ptr %116, align 8
  %118 = getelementptr inbounds nuw %"class.OpenSubdiv::v3_6_0::Vtr::internal::Level", ptr %117, i32 0, i32 23
  %119 = load i32, ptr %5, align 4
  %120 = sext i32 %119 to i64
  %121 = call noundef nonnull align 2 dereferenceable(2) ptr @_ZNSt6vectorIN10OpenSubdiv6v3_6_03Vtr8internal5Level4VTagESaIS5_EEixEm(ptr noundef nonnull align 8 dereferenceable(24) %118, i64 noundef %120) #12
  call void @llvm.memcpy.p0.p0.i64(ptr align 2 %121, ptr align 2 %3, i64 2, i1 false)
  br label %122

122:                                              ; preds = %107, %22
  %123 = load i32, ptr %4, align 4
  %124 = add nsw i32 %123, 1
  store i32 %124, ptr %4, align 4
  br label %8, !llvm.loop !52

125:                                              ; preds = %8
  ret void
}