; Function Attrs: mustprogress nofree norecurse nosync nounwind memory(readwrite, inaccessiblemem: none) uwtable
define void @_ZN10OpenSubdiv6v3_6_03Vtr8internal10Refinement33populateVertexTagsFromParentEdgesEv(ptr nocapture noundef nonnull readonly align 8 dereferenceable(504) %0) local_unnamed_addr #10 align 2 {
  %2 = getelementptr inbounds nuw i8, ptr %0, i64 8
  %3 = load ptr, ptr %2, align 8
  %4 = getelementptr inbounds nuw i8, ptr %3, i64 4
  %5 = load i32, ptr %4, align 4
  %6 = icmp sgt i32 %5, 0
  br i1 %6, label %.lr.ph, label %._crit_edge

.lr.ph:                                           ; preds = %1
  %7 = getelementptr inbounds nuw i8, ptr %0, i64 216
  %8 = getelementptr inbounds nuw i8, ptr %0, i64 16
  br label %9

9:                                                ; preds = %.lr.ph, %50
  %10 = phi ptr [ %3, %.lr.ph ], [ %51, %50 ]
  %indvars.iv = phi i64 [ 0, %.lr.ph ], [ %indvars.iv.next, %50 ]
  %.sroa.0.022 = phi i16 [ 0, %.lr.ph ], [ %.sroa.0.1, %50 ]
  %11 = load ptr, ptr %7, align 8
  %12 = getelementptr inbounds i32, ptr %11, i64 %indvars.iv
  %13 = load i32, ptr %12, align 4
  %.not20 = icmp eq i32 %13, -1
  br i1 %.not20, label %50, label %14

14:                                               ; preds = %9
  %15 = getelementptr inbounds nuw i8, ptr %10, i64 240
  %16 = load ptr, ptr %15, align 8
  %17 = getelementptr inbounds %"struct.OpenSubdiv::v3_6_0::Vtr::internal::Level::ETag", ptr %16, i64 %indvars.iv
  %18 = load i8, ptr %17, align 1
  %19 = and i8 %18, 1
  %20 = zext nneg i8 %19 to i16
  %21 = and i16 %.sroa.0.022, 6202
  %22 = shl i8 %18, 1
  %23 = and i8 %22, 4
  %24 = zext nneg i8 %23 to i16
  %25 = or disjoint i16 %21, %24
  %26 = shl i8 %18, 3
  %27 = and i8 %26, 64
  %28 = zext nneg i8 %27 to i16
  %29 = or disjoint i16 %25, %28
  %30 = lshr i8 %18, 2
  %31 = and i8 %30, 1
  %32 = zext nneg i8 %31 to i16
  %33 = shl nuw nsw i16 %32, 13
  %34 = shl nuw nsw i16 %32, 14
  %35 = and i8 %18, 4
  %.not = icmp eq i8 %35, 0
  %36 = shl nuw i16 %20, 15
  %37 = select i1 %.not, i16 0, i16 %36
  %38 = and i8 %18, 12
  %39 = icmp eq i8 %38, 0
  %40 = select i1 %39, i16 128, i16 512
  %41 = or disjoint i16 %29, %40
  %42 = or disjoint i16 %41, %33
  %.masked = or disjoint i16 %42, %34
  %43 = or disjoint i16 %.masked, %37
  %44 = or i16 %43, %20
  %45 = load ptr, ptr %8, align 8
  %46 = getelementptr inbounds nuw i8, ptr %45, i64 432
  %47 = sext i32 %13 to i64
  %48 = load ptr, ptr %46, align 8
  %49 = getelementptr inbounds %"struct.OpenSubdiv::v3_6_0::Vtr::internal::Level::VTag", ptr %48, i64 %47
  store i16 %44, ptr %49, align 2
  %.pre = load ptr, ptr %2, align 8
  br label %50

50:                                               ; preds = %9, %14
  %51 = phi ptr [ %.pre, %14 ], [ %10, %9 ]
  %.sroa.0.1 = phi i16 [ %44, %14 ], [ %.sroa.0.022, %9 ]
  %indvars.iv.next = add nuw nsw i64 %indvars.iv, 1
  %52 = getelementptr inbounds nuw i8, ptr %51, i64 4
  %53 = load i32, ptr %52, align 4
  %54 = sext i32 %53 to i64
  %55 = icmp slt i64 %indvars.iv.next, %54
  br i1 %55, label %9, label %._crit_edge, !llvm.loop !71

._crit_edge:                                      ; preds = %50, %1
  ret void
}